target datalayout = "e-m:e-p270:32:32-p271:32:32-p272:64:64-i64:64-i128:128-f80:128-n8:16:32:64-S128"
target triple = "x86_64-pc-linux-gnu"

%"class.cv::saliency::ObjectnessBING" = type { %"class.cv::saliency::Objectness.base", double, double, i32, i32, i32, i32, i32, i32, %"class.std::__cxx11::basic_string", %"class.std::__cxx11::basic_string", %"class.std::__cxx11::basic_string", %"class.std::__cxx11::basic_string", %"class.std::vector", %"class.cv::Mat", %"class.cv::saliency::ObjectnessBING::FilterTIG", %"class.cv::Mat", %"class.std::vector.3", %"class.cv::saliency::Saliency" }
%"class.cv::saliency::Objectness.base" = type { %"class.cv::Algorithm" }
%"class.cv::Algorithm" = type { ptr }
%"class.std::__cxx11::basic_string" = type { %"struct.std::__cxx11::basic_string<char>::_Alloc_hider", i64, %union.anon }
%"struct.std::__cxx11::basic_string<char>::_Alloc_hider" = type { ptr }
%union.anon = type { i64, [8 x i8] }
%"class.std::vector" = type { %"struct.std::_Vector_base" }
%"struct.std::_Vector_base" = type { %"struct.std::_Vector_base<int, std::allocator<int>>::_Vector_impl" }
%"struct.std::_Vector_base<int, std::allocator<int>>::_Vector_impl" = type { %"struct.std::_Vector_base<int, std::allocator<int>>::_Vector_impl_data" }
%"struct.std::_Vector_base<int, std::allocator<int>>::_Vector_impl_data" = type { ptr, ptr, ptr }
%"class.cv::saliency::ObjectnessBING::FilterTIG" = type { [2 x i64], [2 x float], [2 x float], [2 x float], [2 x float] }
%"class.cv::Mat" = type { i32, i32, i32, i32, ptr, ptr, ptr, ptr, ptr, ptr, %"struct.cv::MatSize", %"struct.cv::MatStep" }
%"struct.cv::MatSize" = type { ptr }
%"struct.cv::MatStep" = type { ptr, [2 x i64] }
%"class.std::vector.3" = type { %"struct.std::_Vector_base.4" }
%"struct.std::_Vector_base.4" = type { %"struct.std::_Vector_base<float, std::allocator<float>>::_Vector_impl" }
%"struct.std::_Vector_base<float, std::allocator<float>>::_Vector_impl" = type { %"struct.std::_Vector_base<float, std::allocator<float>>::_Vector_impl_data" }
%"struct.std::_Vector_base<float, std::allocator<float>>::_Vector_impl_data" = type { ptr, ptr, ptr }
%"class.cv::saliency::Saliency" = type { %"class.cv::Algorithm", %"class.std::__cxx11::basic_string" }

@.str.13 = private unnamed_addr constant [35 x i8] c"Error: not recognized color space\0A\00", align 1

; Function Attrs: mustprogress uwtable
define void @_ZN2cv8saliency14ObjectnessBING11gradientMagERNS_3MatES3_(ptr noundef nonnull align 8 dereferenceable(464) %0, ptr noundef nonnull align 8 dereferenceable(96) %1, ptr noundef nonnull align 8 dereferenceable(96) %2) #4 align 2 {
  %4 = alloca ptr, align 8
  %5 = alloca ptr, align 8
  %6 = alloca ptr, align 8
  store ptr %0, ptr %4, align 8, !tbaa !3
  store ptr %1, ptr %5, align 8, !tbaa !72
  store ptr %2, ptr %6, align 8, !tbaa !72
  %7 = load ptr, ptr %4, align 8
  %8 = getelementptr inbounds nuw %"class.cv::saliency::ObjectnessBING", ptr %7, i32 0, i32 8
  %9 = load i32, ptr %8, align 4, !tbaa !45
  switch i32 %9, label %19 [
    i32 0, label %10
    i32 2, label %13
    i32 1, label %16
  ]

10:                                               ; preds = %3
  %11 = load ptr, ptr %5, align 8, !tbaa !72
  %12 = load ptr, ptr %6, align 8, !tbaa !72
  call void @_ZN2cv8saliency14ObjectnessBING11gradientRGBERNS_3MatES3_(ptr noundef nonnull align 8 dereferenceable(96) %11, ptr noundef nonnull align 8 dereferenceable(96) %12)
  br label %21

13:                                               ; preds = %3
  %14 = load ptr, ptr %5, align 8, !tbaa !72
  %15 = load ptr, ptr %6, align 8, !tbaa !72
  call void @_ZN2cv8saliency14ObjectnessBING12gradientGrayERNS_3MatES3_(ptr noundef nonnull align 8 dereferenceable(96) %14, ptr noundef nonnull align 8 dereferenceable(96) %15)
  br label %21

16:                                               ; preds = %3
  %17 = load ptr, ptr %5, align 8, !tbaa !72
  %18 = load ptr, ptr %6, align 8, !tbaa !72
  call void @_ZN2cv8saliency14ObjectnessBING11gradientHSVERNS_3MatES3_(ptr noundef nonnull align 8 dereferenceable(96) %17, ptr noundef nonnull align 8 dereferenceable(96) %18)
  br label %21

19:                                               ; preds = %3
  %20 = call i32 (ptr, ...) @printf(ptr noundef @.str.13)
  br label %21

21:                                               ; preds = %19, %16, %13, %10
  ret void
}