; Function Attrs: mustprogress uwtable
define void @_ZN2cv8saliency14ObjectnessBING11gradientMagERNS_3MatES3_(ptr noundef nonnull readonly align 8 captures(none) dereferenceable(464) %0, ptr noundef nonnull align 8 dereferenceable(96) %1, ptr noundef nonnull align 8 dereferenceable(96) %2) local_unnamed_addr #3 align 2 {
  %4 = getelementptr inbounds nuw i8, ptr %0, i64 44
  %5 = load i32, ptr %4, align 4, !tbaa !43
  switch i32 %5, label %9 [
    i32 0, label %6
    i32 2, label %7
    i32 1, label %8
  ]

6:                                                ; preds = %3
  tail call void @_ZN2cv8saliency14ObjectnessBING11gradientRGBERNS_3MatES3_(ptr noundef nonnull align 8 dereferenceable(96) %1, ptr noundef nonnull align 8 dereferenceable(96) %2)
  br label %10

7:                                                ; preds = %3
  tail call void @_ZN2cv8saliency14ObjectnessBING12gradientGrayERNS_3MatES3_(ptr noundef nonnull align 8 dereferenceable(96) %1, ptr noundef nonnull align 8 dereferenceable(96) %2)
  br label %10

8:                                                ; preds = %3
  tail call void @_ZN2cv8saliency14ObjectnessBING11gradientHSVERNS_3MatES3_(ptr noundef nonnull align 8 dereferenceable(96) %1, ptr noundef nonnull align 8 dereferenceable(96) %2)
  br label %10

9:                                                ; preds = %3
  %puts = tail call i32 @puts(ptr nonnull dereferenceable(1) @str)
  br label %10

10:                                               ; preds = %9, %8, %7, %6
  ret void
}